; ModuleID = 'source-C-CXX/3/738.cpp'
source_filename = "source-C-CXX/3/738.cpp"
target datalayout = "e-m:e-p270:32:32-p271:32:32-p272:64:64-i64:64-f80:128-n8:16:32:64-S128"
target triple = "x86_64-pc-linux-gnu"

%"class.std::ios_base::Init" = type { i8 }
%"class.std::basic_ostream" = type { i32 (...)**, %"class.std::basic_ios" }
%"class.std::basic_ios" = type { %"class.std::ios_base", %"class.std::basic_ostream"*, i8, i8, %"class.std::basic_streambuf"*, %"class.std::ctype"*, %"class.std::num_put"*, %"class.std::num_get"* }
%"class.std::ios_base" = type { i32 (...)**, i64, i64, i32, i32, i32, %"struct.std::ios_base::_Callback_list"*, %"struct.std::ios_base::_Words", [8 x %"struct.std::ios_base::_Words"], i32, %"struct.std::ios_base::_Words"*, %"class.std::locale" }
%"struct.std::ios_base::_Callback_list" = type { %"struct.std::ios_base::_Callback_list"*, void (i32, %"class.std::ios_base"*, i32)*, i32, i32 }
%"struct.std::ios_base::_Words" = type { i8*, i64 }
%"class.std::locale" = type { %"class.std::locale::_Impl"* }
%"class.std::locale::_Impl" = type { i32, %"class.std::locale::facet"**, i64, %"class.std::locale::facet"**, i8** }
%"class.std::locale::facet" = type <{ i32 (...)**, i32, [4 x i8] }>
%"class.std::basic_streambuf" = type { i32 (...)**, i8*, i8*, i8*, i8*, i8*, i8*, %"class.std::locale" }
%"class.std::ctype" = type <{ %"class.std::locale::facet.base", [4 x i8], %struct.__locale_struct*, i8, [7 x i8], i32*, i32*, i16*, i8, [256 x i8], [256 x i8], i8, [6 x i8] }>
%"class.std::locale::facet.base" = type <{ i32 (...)**, i32 }>
%struct.__locale_struct = type { [13 x %struct.__locale_data*], i16*, i32*, i32*, [13 x i8*] }
%struct.__locale_data = type opaque
%"class.std::num_put" = type { %"class.std::locale::facet.base", [4 x i8] }
%"class.std::num_get" = type { %"class.std::locale::facet.base", [4 x i8] }
%"class.std::basic_istream" = type { i32 (...)**, i64, %"class.std::basic_ios" }

@_ZStL8__ioinit = internal global %"class.std::ios_base::Init" zeroinitializer, align 1
@__dso_handle = external hidden global i8
@arr = dso_local global [100 x [100 x i32]] zeroinitializer, align 16
@row = dso_local global i32 0, align 4
@col = dso_local global i32 0, align 4
@_ZSt4cout = external global %"class.std::basic_ostream", align 8
@_ZSt3cin = external global %"class.std::basic_istream", align 8
@llvm.global_ctors = appending global [1 x { i32, void ()*, i8* }] [{ i32, void ()*, i8* } { i32 65535, void ()* @_GLOBAL__sub_I_738.cpp, i8* null }]

declare void @_ZNSt8ios_base4InitC1Ev(%"class.std::ios_base::Init"* nonnull align 1 dereferenceable(1)) unnamed_addr #0

; Function Attrs: nounwind
declare void @_ZNSt8ios_base4InitD1Ev(%"class.std::ios_base::Init"* nonnull align 1 dereferenceable(1)) unnamed_addr #1

; Function Attrs: nofree nounwind
declare i32 @__cxa_atexit(void (i8*)*, i8*, i8*) local_unnamed_addr #2

; Function Attrs: mustprogress sspstrong uwtable
define dso_local void @_Z6bianliii(i32 %0, i32 %1) local_unnamed_addr #3 {
  %3 = load i32, i32* @row, align 4, !tbaa !5
  %4 = icmp sge i32 %3, %0
  %5 = icmp sgt i32 %1, 0
  %6 = select i1 %4, i1 %5, i1 false
  br i1 %6, label %7, label %52

7:                                                ; preds = %2
  %8 = zext i32 %1 to i64
  %9 = sext i32 %0 to i64
  br label %10

10:                                               ; preds = %7, %41
  %11 = phi i64 [ %9, %7 ], [ %45, %41 ]
  %12 = phi i64 [ %8, %7 ], [ %51, %41 ]
  %13 = getelementptr inbounds [100 x [100 x i32]], [100 x [100 x i32]]* @arr, i64 0, i64 %11, i64 %12
  %14 = load i32, i32* %13, align 4, !tbaa !5
  %15 = tail call nonnull align 8 dereferenceable(8) %"class.std::basic_ostream"* @_ZNSolsEi(%"class.std::basic_ostream"* nonnull align 8 dereferenceable(8) @_ZSt4cout, i32 %14)
  %16 = bitcast %"class.std::basic_ostream"* %15 to i8**
  %17 = load i8*, i8** %16, align 8, !tbaa !9
  %18 = getelementptr i8, i8* %17, i64 -24
  %19 = bitcast i8* %18 to i64*
  %20 = load i64, i64* %19, align 8
  %21 = bitcast %"class.std::basic_ostream"* %15 to i8*
  %22 = add nsw i64 %20, 240
  %23 = getelementptr inbounds i8, i8* %21, i64 %22
  %24 = bitcast i8* %23 to %"class.std::ctype"**
  %25 = load %"class.std::ctype"*, %"class.std::ctype"** %24, align 8, !tbaa !11
  %26 = icmp eq %"class.std::ctype"* %25, null
  br i1 %26, label %27, label %28

27:                                               ; preds = %10
  tail call void @_ZSt16__throw_bad_castv() #7
  unreachable

28:                                               ; preds = %10
  %29 = getelementptr inbounds %"class.std::ctype", %"class.std::ctype"* %25, i64 0, i32 8
  %30 = load i8, i8* %29, align 8, !tbaa !15
  %31 = icmp eq i8 %30, 0
  br i1 %31, label %35, label %32

32:                                               ; preds = %28
  %33 = getelementptr inbounds %"class.std::ctype", %"class.std::ctype"* %25, i64 0, i32 9, i64 10
  %34 = load i8, i8* %33, align 1, !tbaa !17
  br label %41

35:                                               ; preds = %28
  tail call void @_ZNKSt5ctypeIcE13_M_widen_initEv(%"class.std::ctype"* nonnull align 8 dereferenceable(570) %25)
  %36 = bitcast %"class.std::ctype"* %25 to i8 (%"class.std::ctype"*, i8)***
  %37 = load i8 (%"class.std::ctype"*, i8)**, i8 (%"class.std::ctype"*, i8)*** %36, align 8, !tbaa !9
  %38 = getelementptr inbounds i8 (%"class.std::ctype"*, i8)*, i8 (%"class.std::ctype"*, i8)** %37, i64 6
  %39 = load i8 (%"class.std::ctype"*, i8)*, i8 (%"class.std::ctype"*, i8)** %38, align 8
  %40 = tail call signext i8 %39(%"class.std::ctype"* nonnull align 8 dereferenceable(570) %25, i8 signext 10)
  br label %41

41:                                               ; preds = %32, %35
  %42 = phi i8 [ %34, %32 ], [ %40, %35 ]
  %43 = tail call nonnull align 8 dereferenceable(8) %"class.std::basic_ostream"* @_ZNSo3putEc(%"class.std::basic_ostream"* nonnull align 8 dereferenceable(8) %15, i8 signext %42)
  %44 = tail call nonnull align 8 dereferenceable(8) %"class.std::basic_ostream"* @_ZNSo5flushEv(%"class.std::basic_ostream"* nonnull align 8 dereferenceable(8) %43)
  %45 = add nsw i64 %11, 1
  %46 = load i32, i32* @row, align 4, !tbaa !5
  %47 = sext i32 %46 to i64
  %48 = icmp slt i64 %11, %47
  %49 = icmp sgt i64 %12, 1
  %50 = select i1 %48, i1 %49, i1 false
  %51 = add nsw i64 %12, -1
  br i1 %50, label %10, label %52, !llvm.loop !18

52:                                               ; preds = %41, %2
  ret void
}

declare nonnull align 8 dereferenceable(8) %"class.std::basic_ostream"* @_ZNSolsEi(%"class.std::basic_ostream"* nonnull align 8 dereferenceable(8), i32) local_unnamed_addr #0

; Function Attrs: mustprogress norecurse sspstrong uwtable
define dso_local i32 @main() local_unnamed_addr #4 {
  %1 = tail call nonnull align 8 dereferenceable(16) %"class.std::basic_istream"* @_ZNSirsERi(%"class.std::basic_istream"* nonnull align 8 dereferenceable(16) @_ZSt3cin, i32* nonnull align 4 dereferenceable(4) @row)
  %2 = tail call nonnull align 8 dereferenceable(16) %"class.std::basic_istream"* @_ZNSirsERi(%"class.std::basic_istream"* nonnull align 8 dereferenceable(16) %1, i32* nonnull align 4 dereferenceable(4) @col)
  %3 = load i32, i32* @row, align 4, !tbaa !5
  %4 = icmp slt i32 %3, 1
  %5 = load i32, i32* @col, align 4, !tbaa !5
  br i1 %4, label %13, label %6

6:                                                ; preds = %0
  %7 = icmp slt i32 %5, 1
  br i1 %7, label %35, label %8

8:                                                ; preds = %6, %19
  %9 = phi i32 [ %20, %19 ], [ %3, %6 ]
  %10 = phi i32 [ %21, %19 ], [ %5, %6 ]
  %11 = phi i64 [ %22, %19 ], [ 1, %6 ]
  %12 = icmp slt i32 %10, 1
  br i1 %12, label %19, label %25

13:                                               ; preds = %19, %0
  %14 = phi i32 [ %3, %0 ], [ %20, %19 ]
  %15 = phi i32 [ %5, %0 ], [ %21, %19 ]
  %16 = icmp slt i32 %15, 1
  br i1 %16, label %35, label %42

17:                                               ; preds = %25
  %18 = load i32, i32* @row, align 4, !tbaa !5
  br label %19

19:                                               ; preds = %17, %8
  %20 = phi i32 [ %18, %17 ], [ %9, %8 ]
  %21 = phi i32 [ %30, %17 ], [ %10, %8 ]
  %22 = add nuw nsw i64 %11, 1
  %23 = sext i32 %20 to i64
  %24 = icmp slt i64 %11, %23
  br i1 %24, label %8, label %13, !llvm.loop !20

25:                                               ; preds = %8, %25
  %26 = phi i64 [ %29, %25 ], [ 1, %8 ]
  %27 = getelementptr inbounds [100 x [100 x i32]], [100 x [100 x i32]]* @arr, i64 0, i64 %11, i64 %26
  %28 = tail call nonnull align 8 dereferenceable(16) %"class.std::basic_istream"* @_ZNSirsERi(%"class.std::basic_istream"* nonnull align 8 dereferenceable(16) @_ZSt3cin, i32* nonnull align 4 dereferenceable(4) %27)
  %29 = add nuw nsw i64 %26, 1
  %30 = load i32, i32* @col, align 4, !tbaa !5
  %31 = sext i32 %30 to i64
  %32 = icmp slt i64 %26, %31
  br i1 %32, label %25, label %17, !llvm.loop !22

33:                                               ; preds = %42
  %34 = load i32, i32* @row, align 4, !tbaa !5
  br label %35

35:                                               ; preds = %6, %33, %13
  %36 = phi i32 [ %45, %33 ], [ %15, %13 ], [ %5, %6 ]
  %37 = phi i32 [ %34, %33 ], [ %14, %13 ], [ %3, %6 ]
  %38 = icmp slt i32 %37, 2
  br i1 %38, label %47, label %39

39:                                               ; preds = %35
  tail call void @_Z6bianliii(i32 2, i32 %36)
  %40 = load i32, i32* @row, align 4, !tbaa !5
  %41 = icmp sgt i32 %40, 2
  br i1 %41, label %48, label %47, !llvm.loop !23

42:                                               ; preds = %13, %42
  %43 = phi i32 [ %44, %42 ], [ 1, %13 ]
  tail call void @_Z6bianliii(i32 1, i32 %43)
  %44 = add nuw nsw i32 %43, 1
  %45 = load i32, i32* @col, align 4, !tbaa !5
  %46 = icmp slt i32 %43, %45
  br i1 %46, label %42, label %33, !llvm.loop !24

47:                                               ; preds = %48, %39, %35
  ret i32 0

48:                                               ; preds = %39, %48
  %49 = phi i32 [ %50, %48 ], [ 2, %39 ]
  %50 = add nuw nsw i32 %49, 1
  %51 = load i32, i32* @col, align 4, !tbaa !5
  tail call void @_Z6bianliii(i32 %50, i32 %51)
  %52 = load i32, i32* @row, align 4, !tbaa !5
  %53 = icmp slt i32 %50, %52
  br i1 %53, label %48, label %47, !llvm.loop !23
}

declare nonnull align 8 dereferenceable(16) %"class.std::basic_istream"* @_ZNSirsERi(%"class.std::basic_istream"* nonnull align 8 dereferenceable(16), i32* nonnull align 4 dereferenceable(4)) local_unnamed_addr #0

declare nonnull align 8 dereferenceable(8) %"class.std::basic_ostream"* @_ZNSo3putEc(%"class.std::basic_ostream"* nonnull align 8 dereferenceable(8), i8 signext) local_unnamed_addr #0

declare nonnull align 8 dereferenceable(8) %"class.std::basic_ostream"* @_ZNSo5flushEv(%"class.std::basic_ostream"* nonnull align 8 dereferenceable(8)) local_unnamed_addr #0

; Function Attrs: noreturn
declare void @_ZSt16__throw_bad_castv() local_unnamed_addr #5

declare void @_ZNKSt5ctypeIcE13_M_widen_initEv(%"class.std::ctype"* nonnull align 8 dereferenceable(570)) local_unnamed_addr #0

; Function Attrs: sspstrong uwtable
define internal void @_GLOBAL__sub_I_738.cpp() #6 section ".text.startup" {
  tail call void @_ZNSt8ios_base4InitC1Ev(%"class.std::ios_base::Init"* nonnull align 1 dereferenceable(1) @_ZStL8__ioinit)
  %1 = tail call i32 @__cxa_atexit(void (i8*)* bitcast (void (%"class.std::ios_base::Init"*)* @_ZNSt8ios_base4InitD1Ev to void (i8*)*), i8* getelementptr inbounds (%"class.std::ios_base::Init", %"class.std::ios_base::Init"* @_ZStL8__ioinit, i64 0, i32 0), i8* nonnull @__dso_handle) #8
  ret void
}


!llvm.module.flags = !{!0, !1, !2, !3}
!llvm.ident = !{!4}

!0 = !{i32 1, !"wchar_size", i32 4}
!1 = !{i32 7, !"PIC Level", i32 2}
!2 = !{i32 7, !"PIE Level", i32 2}
!3 = !{i32 7, !"uwtable", i32 1}
!4 = !{!"clang version 13.0.0"}
!5 = !{!6, !6, i64 0}
!6 = !{!"int", !7, i64 0}
!7 = !{!"omnipotent char", !8, i64 0}
!8 = !{!"Simple C++ TBAA"}
!9 = !{!10, !10, i64 0}
!10 = !{!"vtable pointer", !8, i64 0}
!11 = !{!12, !13, i64 240}
!12 = !{!"_ZTSSt9basic_iosIcSt11char_traitsIcEE", !13, i64 216, !7, i64 224, !14, i64 225, !13, i64 232, !13, i64 240, !13, i64 248, !13, i64 256}
!13 = !{!"any pointer", !7, i64 0}
!14 = !{!"bool", !7, i64 0}
!15 = !{!16, !7, i64 56}
!16 = !{!"_ZTSSt5ctypeIcE", !13, i64 16, !14, i64 24, !13, i64 32, !13, i64 40, !13, i64 48, !7, i64 56, !7, i64 57, !7, i64 313, !7, i64 569}
!17 = !{!7, !7, i64 0}
!18 = distinct !{!18, !19}
!19 = !{!"llvm.loop.mustprogress"}
!20 = distinct !{!20, !19, !21}
!21 = !{!"llvm.loop.unswitch.partial.disable"}
!22 = distinct !{!22, !19}
!23 = distinct !{!23, !19}
!24 = distinct !{!24, !19}
